; Function Attrs: mustprogress nofree norecurse nosync nounwind willreturn memory(argmem: readwrite) uwtable
define range(i32 0, 2) i32 @ossl_siv128_get_tag(ptr noundef readonly captures(none) %0, ptr noundef writeonly captures(none) %1, i64 noundef %2) local_unnamed_addr #7 {
  %.not = icmp eq i64 %2, 16
  br i1 %.not, label %4, label %6

4:                                                ; preds = %3
  %5 = getelementptr inbounds nuw i8, ptr %0, i64 16
  tail call void @llvm.memcpy.p0.p0.i64(ptr noundef nonnull align 1 dereferenceable(16) %1, ptr noundef nonnull align 8 dereferenceable(16) %5, i64 16, i1 false)
  br label %6

6:                                                ; preds = %3, %4
  %.0 = phi i32 [ 1, %4 ], [ 0, %3 ]
  ret i32 %.0
}